target datalayout = "e-m:e-p270:32:32-p271:32:32-p272:64:64-i64:64-i128:128-f80:128-n8:16:32:64-S128"
target triple = "x86_64-pc-linux-gnu"

%struct.archive_entry = type { ptr, ptr, i32, %struct.aest, i32, %struct.archive_mstring, i64, i64, %struct.archive_mstring, %struct.archive_mstring, %struct.archive_mstring, %struct.archive_mstring, %struct.archive_mstring, i8, ptr, i64, %struct.ae_digest, %struct.archive_acl, ptr, ptr, ptr, ptr, ptr, [12 x i8], i32 }
%struct.aest = type { i64, i32, i64, i32, i64, i32, i64, i32, i64, i64, i32, i64, i64, i32, i64, i64, i64, i32, i64, i64, i64 }
%struct.archive_mstring = type { %struct.archive_string, %struct.archive_string, %struct.archive_wstring, %struct.archive_string, i32 }
%struct.archive_wstring = type { ptr, i64, i64 }
%struct.archive_string = type { ptr, i64, i64 }
%struct.ae_digest = type { [16 x i8], [20 x i8], [20 x i8], [32 x i8], [48 x i8], [64 x i8] }
%struct.archive_acl = type { i32, ptr, ptr, i32, ptr, ptr, i32 }

@.str = private unnamed_addr constant [10 x i8] c"No memory\00", align 1

; Function Attrs: nounwind uwtable
define dso_local ptr @archive_entry_hardlink_w(ptr noundef %0) #0 {
  %2 = alloca ptr, align 8
  %3 = alloca ptr, align 8
  %4 = alloca ptr, align 8
  %5 = alloca i32, align 4
  store ptr %0, ptr %3, align 8, !tbaa !4
  call void @llvm.lifetime.start.p0(i64 8, ptr %4) #13
  %6 = load ptr, ptr %3, align 8, !tbaa !4
  %7 = getelementptr inbounds nuw %struct.archive_entry, ptr %6, i32 0, i32 4
  %8 = load i32, ptr %7, align 8, !tbaa !35
  %9 = and i32 %8, 1
  %10 = icmp eq i32 %9, 0
  br i1 %10, label %11, label %12

11:                                               ; preds = %1
  store ptr null, ptr %2, align 8
  store i32 1, ptr %5, align 4
  br label %28

12:                                               ; preds = %1
  %13 = load ptr, ptr %3, align 8, !tbaa !4
  %14 = getelementptr inbounds nuw %struct.archive_entry, ptr %13, i32 0, i32 0
  %15 = load ptr, ptr %14, align 8, !tbaa !30
  %16 = load ptr, ptr %3, align 8, !tbaa !4
  %17 = getelementptr inbounds nuw %struct.archive_entry, ptr %16, i32 0, i32 9
  %18 = call i32 @archive_mstring_get_wcs(ptr noundef %15, ptr noundef %17, ptr noundef %4)
  %19 = icmp eq i32 %18, 0
  br i1 %19, label %20, label %22

20:                                               ; preds = %12
  %21 = load ptr, ptr %4, align 8, !tbaa !79
  store ptr %21, ptr %2, align 8
  store i32 1, ptr %5, align 4
  br label %28

22:                                               ; preds = %12
  %23 = call ptr @__errno_location() #17
  %24 = load i32, ptr %23, align 4, !tbaa !32
  %25 = icmp eq i32 %24, 12
  br i1 %25, label %26, label %27

26:                                               ; preds = %22
  call void @__archive_errx(i32 noundef 1, ptr noundef @.str) #18
  unreachable

27:                                               ; preds = %22
  store ptr null, ptr %2, align 8
  store i32 1, ptr %5, align 4
  br label %28

28:                                               ; preds = %27, %20, %11
  call void @llvm.lifetime.end.p0(i64 8, ptr %4) #13
  %29 = load ptr, ptr %2, align 8
  ret ptr %29
}